target datalayout = "e-m:e-p270:32:32-p271:32:32-p272:64:64-i64:64-i128:128-f80:128-n8:16:32:64-S128"
target triple = "x86_64-pc-linux-gnu"

@libctx = internal global ptr null, align 8
@.str.14 = private unnamed_addr constant [30 x i8] c"../openssl/test/quicapitest.c\00", align 1
@.str.70 = private unnamed_addr constant [2 x i8] c"0\00", align 1
@.str.153 = private unnamed_addr constant [62 x i8] c"ctx = SSL_CTX_new_ex(libctx, NULL, OSSL_QUIC_client_method())\00", align 1
@.str.158 = private unnamed_addr constant [19 x i8] c"ssl = SSL_new(ctx)\00", align 1
@.str.187 = private unnamed_addr constant [53 x i8] c"fd = BIO_socket(AF_INET, SOCK_DGRAM, IPPROTO_UDP, 0)\00", align 1
@.str.188 = private unnamed_addr constant [20 x i8] c"SSL_set_fd(ssl, fd)\00", align 1
@.str.189 = private unnamed_addr constant [24 x i8] c"bio = SSL_get_rbio(ssl)\00", align 1
@.str.190 = private unnamed_addr constant [4 x i8] c"bio\00", align 1
@.str.191 = private unnamed_addr constant [18 x i8] c"SSL_get_wbio(ssl)\00", align 1
@.str.192 = private unnamed_addr constant [21 x i8] c"SSL_set_rfd(ssl, fd)\00", align 1
@.str.193 = private unnamed_addr constant [21 x i8] c"SSL_set_wfd(ssl, fd)\00", align 1
@.str.194 = private unnamed_addr constant [24 x i8] c"bio = SSL_get_wbio(ssl)\00", align 1
@.str.195 = private unnamed_addr constant [18 x i8] c"SSL_get_rbio(ssl)\00", align 1
@.str.196 = private unnamed_addr constant [21 x i8] c"BIO_method_type(bio)\00", align 1
@.str.197 = private unnamed_addr constant [15 x i8] c"BIO_TYPE_DGRAM\00", align 1
@.str.198 = private unnamed_addr constant [24 x i8] c"BIO_get_fd(bio, &resfd)\00", align 1
@.str.199 = private unnamed_addr constant [6 x i8] c"resfd\00", align 1
@.str.200 = private unnamed_addr constant [3 x i8] c"fd\00", align 1

; Function Attrs: nounwind uwtable
define internal i32 @test_quic_set_fd(i32 noundef %0) #0 {
  %2 = alloca i32, align 4
  %3 = alloca i32, align 4
  %4 = alloca ptr, align 8
  %5 = alloca ptr, align 8
  %6 = alloca i32, align 4
  %7 = alloca i32, align 4
  %8 = alloca ptr, align 8
  store i32 %0, ptr %2, align 4, !tbaa !13
  call void @llvm.lifetime.start.p0(i64 4, ptr %3) #8
  store i32 0, ptr %3, align 4, !tbaa !13
  call void @llvm.lifetime.start.p0(i64 8, ptr %4) #8
  store ptr null, ptr %4, align 8, !tbaa !15
  call void @llvm.lifetime.start.p0(i64 8, ptr %5) #8
  store ptr null, ptr %5, align 8, !tbaa !17
  call void @llvm.lifetime.start.p0(i64 4, ptr %6) #8
  store i32 -1, ptr %6, align 4, !tbaa !13
  call void @llvm.lifetime.start.p0(i64 4, ptr %7) #8
  store i32 -1, ptr %7, align 4, !tbaa !13
  call void @llvm.lifetime.start.p0(i64 8, ptr %8) #8
  store ptr null, ptr %8, align 8, !tbaa !39
  %9 = load ptr, ptr @libctx, align 8, !tbaa !4
  %10 = call ptr @OSSL_QUIC_client_method()
  %11 = call ptr @SSL_CTX_new_ex(ptr noundef %9, ptr noundef null, ptr noundef %10)
  store ptr %11, ptr %4, align 8, !tbaa !15
  %12 = call i32 @test_ptr(ptr noundef @.str.14, i32 noundef 913, ptr noundef @.str.153, ptr noundef %11)
  %13 = icmp ne i32 %12, 0
  br i1 %13, label %15, label %14

14:                                               ; preds = %1
  br label %120

15:                                               ; preds = %1
  %16 = load ptr, ptr %4, align 8, !tbaa !15
  %17 = call ptr @SSL_new(ptr noundef %16)
  store ptr %17, ptr %5, align 8, !tbaa !17
  %18 = call i32 @test_ptr(ptr noundef @.str.14, i32 noundef 916, ptr noundef @.str.158, ptr noundef %17)
  %19 = icmp ne i32 %18, 0
  br i1 %19, label %21, label %20

20:                                               ; preds = %15
  br label %120

21:                                               ; preds = %15
  %22 = call i32 @BIO_socket(i32 noundef 2, i32 noundef 2, i32 noundef 17, i32 noundef 0)
  store i32 %22, ptr %6, align 4, !tbaa !13
  %23 = call i32 @test_int_ge(ptr noundef @.str.14, i32 noundef 919, ptr noundef @.str.187, ptr noundef @.str.70, i32 noundef %22, i32 noundef 0)
  %24 = icmp ne i32 %23, 0
  br i1 %24, label %26, label %25

25:                                               ; preds = %21
  br label %120

26:                                               ; preds = %21
  %27 = load i32, ptr %2, align 4, !tbaa !13
  %28 = icmp eq i32 %27, 0
  br i1 %28, label %29, label %52

29:                                               ; preds = %26
  %30 = load ptr, ptr %5, align 8, !tbaa !17
  %31 = load i32, ptr %6, align 4, !tbaa !13
  %32 = call i32 @SSL_set_fd(ptr noundef %30, i32 noundef %31)
  %33 = icmp ne i32 %32, 0
  %34 = zext i1 %33 to i32
  %35 = call i32 @test_true(ptr noundef @.str.14, i32 noundef 923, ptr noundef @.str.188, i32 noundef %34)
  %36 = icmp ne i32 %35, 0
  br i1 %36, label %38, label %37

37:                                               ; preds = %29
  br label %120

38:                                               ; preds = %29
  %39 = load ptr, ptr %5, align 8, !tbaa !17
  %40 = call ptr @SSL_get_rbio(ptr noundef %39)
  store ptr %40, ptr %8, align 8, !tbaa !39
  %41 = call i32 @test_ptr(ptr noundef @.str.14, i32 noundef 925, ptr noundef @.str.189, ptr noundef %40)
  %42 = icmp ne i32 %41, 0
  br i1 %42, label %44, label %43

43:                                               ; preds = %38
  br label %120

44:                                               ; preds = %38
  %45 = load ptr, ptr %8, align 8, !tbaa !39
  %46 = load ptr, ptr %5, align 8, !tbaa !17
  %47 = call ptr @SSL_get_wbio(ptr noundef %46)
  %48 = call i32 @test_ptr_eq(ptr noundef @.str.14, i32 noundef 927, ptr noundef @.str.190, ptr noundef @.str.191, ptr noundef %45, ptr noundef %47)
  %49 = icmp ne i32 %48, 0
  br i1 %49, label %51, label %50

50:                                               ; preds = %44
  br label %120

51:                                               ; preds = %44
  br label %100

52:                                               ; preds = %26
  %53 = load i32, ptr %2, align 4, !tbaa !13
  %54 = icmp eq i32 %53, 1
  br i1 %54, label %55, label %77

55:                                               ; preds = %52
  %56 = load ptr, ptr %5, align 8, !tbaa !17
  %57 = load i32, ptr %6, align 4, !tbaa !13
  %58 = call i32 @SSL_set_rfd(ptr noundef %56, i32 noundef %57)
  %59 = icmp ne i32 %58, 0
  %60 = zext i1 %59 to i32
  %61 = call i32 @test_true(ptr noundef @.str.14, i32 noundef 930, ptr noundef @.str.192, i32 noundef %60)
  %62 = icmp ne i32 %61, 0
  br i1 %62, label %64, label %63

63:                                               ; preds = %55
  br label %120

64:                                               ; preds = %55
  %65 = load ptr, ptr %5, align 8, !tbaa !17
  %66 = call ptr @SSL_get_rbio(ptr noundef %65)
  store ptr %66, ptr %8, align 8, !tbaa !39
  %67 = call i32 @test_ptr(ptr noundef @.str.14, i32 noundef 932, ptr noundef @.str.189, ptr noundef %66)
  %68 = icmp ne i32 %67, 0
  br i1 %68, label %70, label %69

69:                                               ; preds = %64
  br label %120

70:                                               ; preds = %64
  %71 = load ptr, ptr %5, align 8, !tbaa !17
  %72 = call ptr @SSL_get_wbio(ptr noundef %71)
  %73 = call i32 @test_ptr_null(ptr noundef @.str.14, i32 noundef 934, ptr noundef @.str.191, ptr noundef %72)
  %74 = icmp ne i32 %73, 0
  br i1 %74, label %76, label %75

75:                                               ; preds = %70
  br label %120

76:                                               ; preds = %70
  br label %99

77:                                               ; preds = %52
  %78 = load ptr, ptr %5, align 8, !tbaa !17
  %79 = load i32, ptr %6, align 4, !tbaa !13
  %80 = call i32 @SSL_set_wfd(ptr noundef %78, i32 noundef %79)
  %81 = icmp ne i32 %80, 0
  %82 = zext i1 %81 to i32
  %83 = call i32 @test_true(ptr noundef @.str.14, i32 noundef 937, ptr noundef @.str.193, i32 noundef %82)
  %84 = icmp ne i32 %83, 0
  br i1 %84, label %86, label %85

85:                                               ; preds = %77
  br label %120

86:                                               ; preds = %77
  %87 = load ptr, ptr %5, align 8, !tbaa !17
  %88 = call ptr @SSL_get_wbio(ptr noundef %87)
  store ptr %88, ptr %8, align 8, !tbaa !39
  %89 = call i32 @test_ptr(ptr noundef @.str.14, i32 noundef 939, ptr noundef @.str.194, ptr noundef %88)
  %90 = icmp ne i32 %89, 0
  br i1 %90, label %92, label %91

91:                                               ; preds = %86
  br label %120

92:                                               ; preds = %86
  %93 = load ptr, ptr %5, align 8, !tbaa !17
  %94 = call ptr @SSL_get_rbio(ptr noundef %93)
  %95 = call i32 @test_ptr_null(ptr noundef @.str.14, i32 noundef 941, ptr noundef @.str.195, ptr noundef %94)
  %96 = icmp ne i32 %95, 0
  br i1 %96, label %98, label %97

97:                                               ; preds = %92
  br label %120

98:                                               ; preds = %92
  br label %99

99:                                               ; preds = %98, %76
  br label %100

100:                                              ; preds = %99, %51
  %101 = load ptr, ptr %8, align 8, !tbaa !39
  %102 = call i32 @BIO_method_type(ptr noundef %101)
  %103 = call i32 @test_int_eq(ptr noundef @.str.14, i32 noundef 945, ptr noundef @.str.196, ptr noundef @.str.197, i32 noundef %102, i32 noundef 1301)
  %104 = icmp ne i32 %103, 0
  br i1 %104, label %106, label %105

105:                                              ; preds = %100
  br label %120

106:                                              ; preds = %100
  %107 = load ptr, ptr %8, align 8, !tbaa !39
  %108 = call i64 @BIO_ctrl(ptr noundef %107, i32 noundef 105, i64 noundef 0, ptr noundef %7)
  %109 = icmp ne i64 %108, 0
  %110 = zext i1 %109 to i32
  %111 = call i32 @test_true(ptr noundef @.str.14, i32 noundef 948, ptr noundef @.str.198, i32 noundef %110)
  %112 = icmp ne i32 %111, 0
  br i1 %112, label %113, label %118

113:                                              ; preds = %106
  %114 = load i32, ptr %7, align 4, !tbaa !13
  %115 = load i32, ptr %6, align 4, !tbaa !13
  %116 = call i32 @test_int_eq(ptr noundef @.str.14, i32 noundef 949, ptr noundef @.str.199, ptr noundef @.str.200, i32 noundef %114, i32 noundef %115)
  %117 = icmp ne i32 %116, 0
  br i1 %117, label %119, label %118

118:                                              ; preds = %113, %106
  br label %120

119:                                              ; preds = %113
  store i32 1, ptr %3, align 4, !tbaa !13
  br label %120

120:                                              ; preds = %119, %118, %105, %97, %91, %85, %75, %69, %63, %50, %43, %37, %25, %20, %14
  %121 = load ptr, ptr %5, align 8, !tbaa !17
  call void @SSL_free(ptr noundef %121)
  %122 = load ptr, ptr %4, align 8, !tbaa !15
  call void @SSL_CTX_free(ptr noundef %122)
  %123 = load i32, ptr %6, align 4, !tbaa !13
  %124 = icmp sge i32 %123, 0
  br i1 %124, label %125, label %128

125:                                              ; preds = %120
  %126 = load i32, ptr %6, align 4, !tbaa !13
  %127 = call i32 @BIO_closesocket(i32 noundef %126)
  br label %128

128:                                              ; preds = %125, %120
  %129 = load i32, ptr %3, align 4, !tbaa !13
  call void @llvm.lifetime.end.p0(i64 8, ptr %8) #8
  call void @llvm.lifetime.end.p0(i64 4, ptr %7) #8
  call void @llvm.lifetime.end.p0(i64 4, ptr %6) #8
  call void @llvm.lifetime.end.p0(i64 8, ptr %5) #8
  call void @llvm.lifetime.end.p0(i64 8, ptr %4) #8
  call void @llvm.lifetime.end.p0(i64 4, ptr %3) #8
  ret i32 %129
}