; Function Attrs: nounwind uwtable
define internal range(i32 0, 2) i32 @test_quic_set_fd(i32 noundef %0) #1 {
  %2 = alloca i32, align 4
  call void @llvm.lifetime.start.p0(i64 4, ptr nonnull %2) #10
  store i32 -1, ptr %2, align 4, !tbaa !19
  %3 = load ptr, ptr @libctx, align 8, !tbaa !4
  %4 = tail call ptr @OSSL_QUIC_client_method() #10
  %5 = tail call ptr @SSL_CTX_new_ex(ptr noundef %3, ptr noundef null, ptr noundef %4) #10
  %6 = tail call i32 @test_ptr(ptr noundef nonnull @.str.14, i32 noundef 913, ptr noundef nonnull @.str.153, ptr noundef %5) #10
  %.not = icmp eq i32 %6, 0
  br i1 %.not, label %58, label %7

7:                                                ; preds = %1
  %8 = tail call ptr @SSL_new(ptr noundef %5) #10
  %9 = tail call i32 @test_ptr(ptr noundef nonnull @.str.14, i32 noundef 916, ptr noundef nonnull @.str.158, ptr noundef %8) #10
  %.not27 = icmp eq i32 %9, 0
  br i1 %.not27, label %58, label %10

10:                                               ; preds = %7
  %11 = tail call i32 @BIO_socket(i32 noundef 2, i32 noundef 2, i32 noundef 17, i32 noundef 0) #10
  %12 = tail call i32 @test_int_ge(ptr noundef nonnull @.str.14, i32 noundef 919, ptr noundef nonnull @.str.187, ptr noundef nonnull @.str.70, i32 noundef %11, i32 noundef 0) #10
  %.not28 = icmp eq i32 %12, 0
  br i1 %.not28, label %58, label %13

13:                                               ; preds = %10
  switch i32 %0, label %36 [
    i32 0, label %14
    i32 1, label %25
  ]

14:                                               ; preds = %13
  %15 = tail call i32 @SSL_set_fd(ptr noundef %8, i32 noundef %11) #10
  %16 = icmp ne i32 %15, 0
  %17 = zext i1 %16 to i32
  %18 = tail call i32 @test_true(ptr noundef nonnull @.str.14, i32 noundef 923, ptr noundef nonnull @.str.188, i32 noundef %17) #10
  %.not35 = icmp eq i32 %18, 0
  br i1 %.not35, label %58, label %19

19:                                               ; preds = %14
  %20 = tail call ptr @SSL_get_rbio(ptr noundef %8) #10
  %21 = tail call i32 @test_ptr(ptr noundef nonnull @.str.14, i32 noundef 925, ptr noundef nonnull @.str.189, ptr noundef %20) #10
  %.not36 = icmp eq i32 %21, 0
  br i1 %.not36, label %58, label %22

22:                                               ; preds = %19
  %23 = tail call ptr @SSL_get_wbio(ptr noundef %8) #10
  %24 = tail call i32 @test_ptr_eq(ptr noundef nonnull @.str.14, i32 noundef 927, ptr noundef nonnull @.str.190, ptr noundef nonnull @.str.191, ptr noundef %20, ptr noundef %23) #10
  %.not37 = icmp eq i32 %24, 0
  br i1 %.not37, label %58, label %47

25:                                               ; preds = %13
  %26 = tail call i32 @SSL_set_rfd(ptr noundef %8, i32 noundef %11) #10
  %27 = icmp ne i32 %26, 0
  %28 = zext i1 %27 to i32
  %29 = tail call i32 @test_true(ptr noundef nonnull @.str.14, i32 noundef 930, ptr noundef nonnull @.str.192, i32 noundef %28) #10
  %.not32 = icmp eq i32 %29, 0
  br i1 %.not32, label %58, label %30

30:                                               ; preds = %25
  %31 = tail call ptr @SSL_get_rbio(ptr noundef %8) #10
  %32 = tail call i32 @test_ptr(ptr noundef nonnull @.str.14, i32 noundef 932, ptr noundef nonnull @.str.189, ptr noundef %31) #10
  %.not33 = icmp eq i32 %32, 0
  br i1 %.not33, label %58, label %33

33:                                               ; preds = %30
  %34 = tail call ptr @SSL_get_wbio(ptr noundef %8) #10
  %35 = tail call i32 @test_ptr_null(ptr noundef nonnull @.str.14, i32 noundef 934, ptr noundef nonnull @.str.191, ptr noundef %34) #10
  %.not34 = icmp eq i32 %35, 0
  br i1 %.not34, label %58, label %47

36:                                               ; preds = %13
  %37 = tail call i32 @SSL_set_wfd(ptr noundef %8, i32 noundef %11) #10
  %38 = icmp ne i32 %37, 0
  %39 = zext i1 %38 to i32
  %40 = tail call i32 @test_true(ptr noundef nonnull @.str.14, i32 noundef 937, ptr noundef nonnull @.str.193, i32 noundef %39) #10
  %.not29 = icmp eq i32 %40, 0
  br i1 %.not29, label %58, label %41

41:                                               ; preds = %36
  %42 = tail call ptr @SSL_get_wbio(ptr noundef %8) #10
  %43 = tail call i32 @test_ptr(ptr noundef nonnull @.str.14, i32 noundef 939, ptr noundef nonnull @.str.194, ptr noundef %42) #10
  %.not30 = icmp eq i32 %43, 0
  br i1 %.not30, label %58, label %44

44:                                               ; preds = %41
  %45 = tail call ptr @SSL_get_rbio(ptr noundef %8) #10
  %46 = tail call i32 @test_ptr_null(ptr noundef nonnull @.str.14, i32 noundef 941, ptr noundef nonnull @.str.195, ptr noundef %45) #10
  %.not31 = icmp eq i32 %46, 0
  br i1 %.not31, label %58, label %47

47:                                               ; preds = %33, %44, %22
  %.0 = phi ptr [ %20, %22 ], [ %31, %33 ], [ %42, %44 ]
  %48 = tail call i32 @BIO_method_type(ptr noundef %.0) #10
  %49 = tail call i32 @test_int_eq(ptr noundef nonnull @.str.14, i32 noundef 945, ptr noundef nonnull @.str.196, ptr noundef nonnull @.str.197, i32 noundef %48, i32 noundef 1301) #10
  %.not38 = icmp eq i32 %49, 0
  br i1 %.not38, label %58, label %50

50:                                               ; preds = %47
  %51 = call i64 @BIO_ctrl(ptr noundef %.0, i32 noundef 105, i64 noundef 0, ptr noundef nonnull %2) #10
  %52 = icmp ne i64 %51, 0
  %53 = zext i1 %52 to i32
  %54 = call i32 @test_true(ptr noundef nonnull @.str.14, i32 noundef 948, ptr noundef nonnull @.str.198, i32 noundef %53) #10
  %.not39 = icmp eq i32 %54, 0
  br i1 %.not39, label %58, label %55

55:                                               ; preds = %50
  %56 = load i32, ptr %2, align 4, !tbaa !19
  %57 = call i32 @test_int_eq(ptr noundef nonnull @.str.14, i32 noundef 949, ptr noundef nonnull @.str.199, ptr noundef nonnull @.str.200, i32 noundef %56, i32 noundef %11) #10
  %.not40 = icmp ne i32 %57, 0
  %spec.select = zext i1 %.not40 to i32
  br label %58

58:                                               ; preds = %55, %50, %47, %44, %41, %36, %33, %30, %25, %22, %19, %14, %10, %7, %1
  %.025 = phi i32 [ 0, %50 ], [ 0, %47 ], [ 0, %22 ], [ 0, %19 ], [ 0, %14 ], [ 0, %33 ], [ 0, %30 ], [ 0, %25 ], [ 0, %44 ], [ 0, %41 ], [ 0, %36 ], [ 0, %10 ], [ 0, %7 ], [ 0, %1 ], [ %spec.select, %55 ]
  %.024 = phi ptr [ %8, %50 ], [ %8, %47 ], [ %8, %22 ], [ %8, %19 ], [ %8, %14 ], [ %8, %33 ], [ %8, %30 ], [ %8, %25 ], [ %8, %44 ], [ %8, %41 ], [ %8, %36 ], [ %8, %10 ], [ %8, %7 ], [ null, %1 ], [ %8, %55 ]
  %.023 = phi i32 [ %11, %50 ], [ %11, %47 ], [ %11, %22 ], [ %11, %19 ], [ %11, %14 ], [ %11, %33 ], [ %11, %30 ], [ %11, %25 ], [ %11, %44 ], [ %11, %41 ], [ %11, %36 ], [ %11, %10 ], [ -1, %7 ], [ -1, %1 ], [ %11, %55 ]
  call void @SSL_free(ptr noundef %.024) #10
  call void @SSL_CTX_free(ptr noundef %5) #10
  %59 = icmp sgt i32 %.023, -1
  br i1 %59, label %60, label %62

60:                                               ; preds = %58
  %61 = call i32 @BIO_closesocket(i32 noundef %.023) #10
  br label %62

62:                                               ; preds = %60, %58
  call void @llvm.lifetime.end.p0(i64 4, ptr nonnull %2) #10
  ret i32 %.025
}